target datalayout = "e-m:e-p270:32:32-p271:32:32-p272:64:64-i64:64-i128:128-f80:128-n8:16:32:64-S128"
target triple = "x86_64-pc-linux-gnu"

%struct.ParseContext_ = type { %struct.TokenData, i32, %union.SourceSpan, %union.SourceSpan, ptr, %struct.Lexer }
%struct.TokenData = type { ptr, i64, %union.anon.86 }
%union.anon.86 = type { %struct.anon.89 }
%struct.anon.89 = type { %struct.Int128_, i8 }
%struct.Int128_ = type { i64, i64 }
%union.SourceSpan = type { i64 }
%struct.Lexer = type { ptr, ptr, ptr, ptr, i32, i32, ptr, ptr, ptr, %struct.TokenData, %union.SourceSpan, i32, i32 }
%struct.anon.0 = type { i16, i8, i8, i32 }
%struct.Decl_ = type { ptr, ptr, %union.SourceSpan, i64, %union.anon, i32, %union.anon.1, i64, ptr, ptr, ptr, %union.anon.2 }
%union.anon = type { ptr }
%union.anon.1 = type { i16 }
%union.anon.2 = type { %struct.FuncDecl }
%struct.FuncDecl = type { i32, [4 x i8], %struct.Signature_, i32, i32, %union.anon.9 }
%struct.Signature_ = type <{ %struct.CalleeAttributes, i16, i8, i32, i32, [4 x i8], ptr }>
%struct.CalleeAttributes = type { i8 }
%union.anon.9 = type { %struct.anon.10 }
%struct.anon.10 = type { i16, %union.anon.11 }
%union.anon.11 = type { ptr }
%struct.anon.3 = type { ptr, ptr, %union.anon.4 }
%union.anon.4 = type { %struct.BitStructDecl }
%struct.BitStructDecl = type { ptr, ptr, i8 }
%struct.Type_ = type { i32, ptr, ptr, ptr, %union.anon.91, ptr, ptr, %union.anon.93 }
%union.anon.91 = type { ptr }
%union.anon.93 = type { %struct.TypeFunction }
%struct.TypeFunction = type { ptr, ptr, ptr }

@.str.16 = private unnamed_addr constant [13 x i8] c"Expected ';'\00", align 1
@poisoned_type_info = external global ptr, align 8
@poisoned_decl = external global ptr, align 8
@.str.79 = private unnamed_addr constant [50 x i8] c"Names of %ss must start with an uppercase letter.\00", align 1
@.str.80 = private unnamed_addr constant [38 x i8] c"Names of %ss cannot be all uppercase.\00", align 1
@.str.81 = private unnamed_addr constant [47 x i8] c"'%s' should be followed by the name of the %s.\00", align 1
@.str.82 = private unnamed_addr constant [15 x i8] c"Expected '%s'.\00", align 1
@.str.140 = private unnamed_addr constant [14 x i8] c"distinct type\00", align 1

; Function Attrs: nounwind uwtable
define internal i64 @extend_span_with_token(i64 %0, i64 %1) #0 {
  %3 = alloca %union.SourceSpan, align 8
  %4 = alloca %union.SourceSpan, align 8
  %5 = alloca %union.SourceSpan, align 8
  %6 = getelementptr inbounds %union.SourceSpan, ptr %4, i32 0, i32 0
  store i64 %0, ptr %6, align 8
  %7 = getelementptr inbounds %union.SourceSpan, ptr %5, i32 0, i32 0
  store i64 %1, ptr %7, align 8
  %8 = getelementptr inbounds %struct.anon.0, ptr %4, i32 0, i32 3
  %9 = load i32, ptr %8, align 4
  %10 = getelementptr inbounds %struct.anon.0, ptr %5, i32 0, i32 3
  %11 = load i32, ptr %10, align 4
  %12 = icmp ne i32 %9, %11
  br i1 %12, label %13, label %14

13:                                               ; preds = %2
  call void @llvm.memcpy.p0.p0.i64(ptr align 8 %3, ptr align 8 %4, i64 8, i1 false)
  br label %28

14:                                               ; preds = %2
  %15 = getelementptr inbounds %struct.anon.0, ptr %5, i32 0, i32 2
  %16 = load i8, ptr %15, align 1
  %17 = zext i8 %16 to i32
  %18 = getelementptr inbounds %struct.anon.0, ptr %5, i32 0, i32 1
  %19 = load i8, ptr %18, align 2
  %20 = zext i8 %19 to i32
  %21 = add nsw i32 %17, %20
  %22 = getelementptr inbounds %struct.anon.0, ptr %4, i32 0, i32 2
  %23 = load i8, ptr %22, align 1
  %24 = zext i8 %23 to i32
  %25 = sub nsw i32 %21, %24
  %26 = trunc i32 %25 to i8
  %27 = getelementptr inbounds %struct.anon.0, ptr %4, i32 0, i32 1
  store i8 %26, ptr %27, align 2
  call void @llvm.memcpy.p0.p0.i64(ptr align 8 %3, ptr align 8 %4, i64 8, i1 false)
  br label %28

28:                                               ; preds = %14, %13
  %29 = getelementptr inbounds %union.SourceSpan, ptr %3, i32 0, i32 0
  %30 = load i64, ptr %29, align 8
  ret i64 %30
}

; Function Attrs: nounwind uwtable
define dso_local ptr @parse_type(ptr noundef %0) #0 {
  %2 = alloca ptr, align 8
  %3 = alloca ptr, align 8
  %4 = alloca ptr, align 8
  %5 = alloca ptr, align 8
  %6 = alloca ptr, align 8
  store ptr %0, ptr %4, align 8
  %7 = load ptr, ptr %4, align 8
  %8 = call ptr @parse_base_type(ptr noundef %7)
  store ptr %8, ptr %5, align 8
  %9 = load ptr, ptr %5, align 8
  store ptr %9, ptr %2, align 8
  %10 = load ptr, ptr %2, align 8
  %11 = icmp ne ptr %10, null
  br i1 %11, label %12, label %19

12:                                               ; preds = %1
  %13 = load ptr, ptr %2, align 8
  %14 = load i16, ptr %13, align 8
  %15 = lshr i16 %14, 3
  %16 = and i16 %15, 63
  %17 = zext i16 %16 to i32
  %18 = icmp ne i32 %17, 0
  br label %19

19:                                               ; preds = %12, %1
  %20 = phi i1 [ true, %1 ], [ %18, %12 ]
  br i1 %20, label %23, label %21

21:                                               ; preds = %19
  %22 = load ptr, ptr @poisoned_type_info, align 8
  store ptr %22, ptr %3, align 8
  br label %28

23:                                               ; preds = %19
  %24 = load ptr, ptr %5, align 8
  store ptr %24, ptr %6, align 8
  %25 = load ptr, ptr %4, align 8
  %26 = load ptr, ptr %6, align 8
  %27 = call ptr @parse_type_with_base(ptr noundef %25, ptr noundef %26)
  store ptr %27, ptr %3, align 8
  br label %28

28:                                               ; preds = %23, %21
  %29 = load ptr, ptr %3, align 8
  ret ptr %29
}

; Function Attrs: nounwind uwtable
define internal zeroext i1 @consume_type_name(ptr noundef %0, ptr noundef %1) #0 {
  %3 = alloca i32, align 4
  %4 = alloca ptr, align 8
  %5 = alloca i32, align 4
  %6 = alloca ptr, align 8
  %7 = alloca i32, align 4
  %8 = alloca i1, align 1
  %9 = alloca ptr, align 8
  %10 = alloca ptr, align 8
  store ptr %0, ptr %9, align 8
  store ptr %1, ptr %10, align 8
  %11 = load ptr, ptr %9, align 8
  store ptr %11, ptr %4, align 8
  store i32 64, ptr %5, align 4
  %12 = load ptr, ptr %4, align 8
  %13 = getelementptr inbounds %struct.ParseContext_, ptr %12, i32 0, i32 1
  %14 = load i32, ptr %13, align 8
  %15 = load i32, ptr %5, align 4
  %16 = icmp eq i32 %14, %15
  br i1 %16, label %28, label %17

17:                                               ; preds = %2
  %18 = load ptr, ptr %9, align 8
  %19 = getelementptr inbounds %struct.ParseContext_, ptr %18, i32 0, i32 1
  %20 = load i32, ptr %19, align 8
  store i32 %20, ptr %3, align 4
  %21 = load i32, ptr %3, align 4
  %22 = icmp uge i32 %21, 82
  br i1 %22, label %23, label %26

23:                                               ; preds = %17
  %24 = load i32, ptr %3, align 4
  %25 = icmp ule i32 %24, 144
  br label %26

26:                                               ; preds = %23, %17
  %27 = phi i1 [ false, %17 ], [ %25, %23 ]
  br i1 %27, label %28, label %36

28:                                               ; preds = %26, %2
  br label %29

29:                                               ; preds = %28
  %30 = load ptr, ptr %9, align 8
  %31 = getelementptr inbounds %struct.ParseContext_, ptr %30, i32 0, i32 2
  %32 = load ptr, ptr %10, align 8
  %33 = getelementptr inbounds %union.SourceSpan, ptr %31, i32 0, i32 0
  %34 = load i64, ptr %33, align 8
  call void (i64, ptr, ...) @sema_error_at(i64 %34, ptr noundef @.str.79, ptr noundef %32)
  store i1 false, ptr %8, align 1
  br label %56

35:                                               ; No predecessors!
  br label %36

36:                                               ; preds = %35, %26
  %37 = load ptr, ptr %9, align 8
  store ptr %37, ptr %6, align 8
  store i32 65, ptr %7, align 4
  %38 = load ptr, ptr %6, align 8
  %39 = getelementptr inbounds %struct.ParseContext_, ptr %38, i32 0, i32 1
  %40 = load i32, ptr %39, align 8
  %41 = load i32, ptr %7, align 4
  %42 = icmp eq i32 %40, %41
  br i1 %42, label %43, label %51

43:                                               ; preds = %36
  br label %44

44:                                               ; preds = %43
  %45 = load ptr, ptr %9, align 8
  %46 = getelementptr inbounds %struct.ParseContext_, ptr %45, i32 0, i32 2
  %47 = load ptr, ptr %10, align 8
  %48 = getelementptr inbounds %union.SourceSpan, ptr %46, i32 0, i32 0
  %49 = load i64, ptr %48, align 8
  call void (i64, ptr, ...) @sema_error_at(i64 %49, ptr noundef @.str.80, ptr noundef %47)
  store i1 false, ptr %8, align 1
  br label %56

50:                                               ; No predecessors!
  br label %51

51:                                               ; preds = %50, %36
  %52 = load ptr, ptr %9, align 8
  %53 = load ptr, ptr %10, align 8
  %54 = load ptr, ptr %10, align 8
  %55 = call zeroext i1 (ptr, i32, ptr, ...) @consume(ptr noundef %52, i32 noundef 66, ptr noundef @.str.81, ptr noundef %53, ptr noundef %54)
  store i1 %55, ptr %8, align 1
  br label %56

56:                                               ; preds = %51, %44, %29
  %57 = load i1, ptr %8, align 1
  ret i1 %57
}

; Function Attrs: nounwind uwtable
define internal ptr @parse_distinct_declaration(ptr noundef %0) #0 {
  %2 = alloca ptr, align 8
  %3 = alloca i32, align 4
  %4 = alloca ptr, align 8
  %5 = alloca i32, align 4
  %6 = alloca i1, align 1
  %7 = alloca ptr, align 8
  %8 = alloca i32, align 4
  %9 = alloca ptr, align 8
  %10 = alloca ptr, align 8
  %11 = alloca ptr, align 8
  %12 = alloca i32, align 4
  %13 = alloca ptr, align 8
  %14 = alloca ptr, align 8
  %15 = alloca ptr, align 8
  %16 = alloca ptr, align 8
  %17 = alloca %union.SourceSpan, align 8
  store ptr %0, ptr %14, align 8
  %18 = load ptr, ptr %14, align 8
  store ptr %18, ptr %2, align 8
  store i32 116, ptr %3, align 4
  %19 = load ptr, ptr %2, align 8
  call void @advance(ptr noundef %19) #6
  %20 = load ptr, ptr %14, align 8
  store ptr %20, ptr %10, align 8
  %21 = load ptr, ptr %10, align 8
  %22 = getelementptr inbounds %struct.TokenData, ptr %21, i32 0, i32 2
  %23 = load ptr, ptr %22, align 8
  %24 = load ptr, ptr %14, align 8
  %25 = getelementptr inbounds %struct.ParseContext_, ptr %24, i32 0, i32 2
  %26 = getelementptr inbounds %union.SourceSpan, ptr %25, i32 0, i32 0
  %27 = load i64, ptr %26, align 8
  %28 = call ptr @decl_new_with_type(ptr noundef %23, i64 %27, i32 noundef 10)
  store ptr %28, ptr %15, align 8
  %29 = load ptr, ptr %14, align 8
  %30 = call zeroext i1 @consume_type_name(ptr noundef %29, ptr noundef @.str.140)
  br i1 %30, label %33, label %31

31:                                               ; preds = %1
  %32 = load ptr, ptr @poisoned_decl, align 8
  store ptr %32, ptr %13, align 8
  br label %141

33:                                               ; preds = %1
  %34 = load ptr, ptr %14, align 8
  %35 = load ptr, ptr %15, align 8
  %36 = getelementptr inbounds %struct.Decl_, ptr %35, i32 0, i32 11
  %37 = getelementptr inbounds %struct.anon.3, ptr %36, i32 0, i32 0
  %38 = call zeroext i1 @parse_interface_impls(ptr noundef %34, ptr noundef %37)
  br i1 %38, label %41, label %39

39:                                               ; preds = %33
  %40 = load ptr, ptr @poisoned_decl, align 8
  store ptr %40, ptr %13, align 8
  br label %141

41:                                               ; preds = %33
  %42 = load ptr, ptr %14, align 8
  %43 = load ptr, ptr %15, align 8
  %44 = call zeroext i1 @parse_attributes_for_global(ptr noundef %42, ptr noundef %43)
  br i1 %44, label %47, label %45

45:                                               ; preds = %41
  %46 = load ptr, ptr @poisoned_decl, align 8
  store ptr %46, ptr %13, align 8
  br label %141

47:                                               ; preds = %41
  %48 = load ptr, ptr %15, align 8
  %49 = getelementptr inbounds %struct.Decl_, ptr %48, i32 0, i32 10
  %50 = load ptr, ptr %49, align 8
  %51 = getelementptr inbounds %struct.Type_, ptr %50, i32 0, i32 0
  store i32 32, ptr %51, align 8
  %52 = load ptr, ptr %15, align 8
  %53 = getelementptr inbounds %struct.Decl_, ptr %52, i32 0, i32 3
  %54 = load i64, ptr %53, align 8
  %55 = and i64 %54, -128
  %56 = or i64 %55, 10
  store i64 %56, ptr %53, align 8
  br label %57

57:                                               ; preds = %47
  %58 = load ptr, ptr %14, align 8
  store ptr %58, ptr %7, align 8
  store i32 10, ptr %8, align 4
  %59 = load ptr, ptr %7, align 8
  %60 = load i32, ptr %8, align 4
  store ptr %59, ptr %4, align 8
  store i32 %60, ptr %5, align 4
  %61 = load ptr, ptr %4, align 8
  %62 = getelementptr inbounds %struct.ParseContext_, ptr %61, i32 0, i32 1
  %63 = load i32, ptr %62, align 8
  %64 = load i32, ptr %5, align 4
  %65 = icmp eq i32 %63, %64
  br i1 %65, label %66, label %67

66:                                               ; preds = %57
  store i1 true, ptr %6, align 1
  br label %73

67:                                               ; preds = %57
  %68 = load ptr, ptr %7, align 8
  %69 = getelementptr inbounds %struct.ParseContext_, ptr %68, i32 0, i32 2
  %70 = load i32, ptr %8, align 4
  %71 = call ptr @token_type_to_string(i32 noundef %70) #6
  %72 = load i64, ptr %69, align 8
  call void (i64, ptr, ...) @sema_error_at(i64 %72, ptr noundef @.str.82, ptr noundef %71) #6
  store i1 false, ptr %6, align 1
  br label %73

73:                                               ; preds = %67, %66
  %74 = load i1, ptr %6, align 1
  br i1 %74, label %77, label %75

75:                                               ; preds = %73
  %76 = load ptr, ptr @poisoned_decl, align 8
  store ptr %76, ptr %13, align 8
  br label %141

77:                                               ; preds = %73
  %78 = load ptr, ptr %14, align 8
  call void @advance(ptr noundef %78)
  br label %79

79:                                               ; preds = %77
  %80 = load ptr, ptr %14, align 8
  %81 = call zeroext i1 @try_consume(ptr noundef %80, i32 noundef 129)
  %82 = load ptr, ptr %15, align 8
  %83 = getelementptr inbounds %struct.Decl_, ptr %82, i32 0, i32 3
  %84 = zext i1 %81 to i64
  %85 = load i64, ptr %83, align 8
  %86 = shl i64 %84, 15
  %87 = and i64 %85, -32769
  %88 = or i64 %87, %86
  store i64 %88, ptr %83, align 8
  %89 = load ptr, ptr %14, align 8
  %90 = call ptr @parse_type(ptr noundef %89)
  store ptr %90, ptr %16, align 8
  %91 = load ptr, ptr %16, align 8
  store ptr %91, ptr %9, align 8
  %92 = load ptr, ptr %9, align 8
  %93 = icmp ne ptr %92, null
  br i1 %93, label %94, label %101

94:                                               ; preds = %79
  %95 = load ptr, ptr %9, align 8
  %96 = load i16, ptr %95, align 8
  %97 = lshr i16 %96, 3
  %98 = and i16 %97, 63
  %99 = zext i16 %98 to i32
  %100 = icmp ne i32 %99, 0
  br label %101

101:                                              ; preds = %94, %79
  %102 = phi i1 [ true, %79 ], [ %100, %94 ]
  br i1 %102, label %105, label %103

103:                                              ; preds = %101
  %104 = load ptr, ptr @poisoned_decl, align 8
  store ptr %104, ptr %13, align 8
  br label %141

105:                                              ; preds = %101
  %106 = load ptr, ptr %16, align 8
  %107 = load ptr, ptr %15, align 8
  %108 = getelementptr inbounds %struct.Decl_, ptr %107, i32 0, i32 11
  %109 = getelementptr inbounds %struct.anon.3, ptr %108, i32 0, i32 2
  store ptr %106, ptr %109, align 8
  br label %110

110:                                              ; preds = %105
  %111 = load ptr, ptr %15, align 8
  %112 = getelementptr inbounds %struct.Decl_, ptr %111, i32 0, i32 2
  %113 = load ptr, ptr %15, align 8
  %114 = getelementptr inbounds %struct.Decl_, ptr %113, i32 0, i32 2
  %115 = load ptr, ptr %14, align 8
  %116 = getelementptr inbounds %struct.ParseContext_, ptr %115, i32 0, i32 3
  %117 = getelementptr inbounds %union.SourceSpan, ptr %114, i32 0, i32 0
  %118 = load i64, ptr %117, align 8
  %119 = getelementptr inbounds %union.SourceSpan, ptr %116, i32 0, i32 0
  %120 = load i64, ptr %119, align 8
  %121 = call i64 @extend_span_with_token(i64 %118, i64 %120)
  %122 = getelementptr inbounds %union.SourceSpan, ptr %17, i32 0, i32 0
  store i64 %121, ptr %122, align 8
  call void @llvm.memcpy.p0.p0.i64(ptr align 8 %112, ptr align 8 %17, i64 8, i1 false)
  br label %123

123:                                              ; preds = %110
  br label %124

124:                                              ; preds = %123
  %125 = load ptr, ptr %14, align 8
  store ptr %125, ptr %11, align 8
  store i32 9, ptr %12, align 4
  %126 = load ptr, ptr %11, align 8
  %127 = getelementptr inbounds %struct.ParseContext_, ptr %126, i32 0, i32 1
  %128 = load i32, ptr %127, align 8
  %129 = load i32, ptr %12, align 4
  %130 = icmp eq i32 %128, %129
  br i1 %130, label %137, label %131

131:                                              ; preds = %124
  %132 = load ptr, ptr %14, align 8
  %133 = getelementptr inbounds %struct.ParseContext_, ptr %132, i32 0, i32 3
  %134 = getelementptr inbounds %union.SourceSpan, ptr %133, i32 0, i32 0
  %135 = load i64, ptr %134, align 8
  call void (i64, ptr, ...) @sema_error_at_after(i64 %135, ptr noundef @.str.16)
  %136 = load ptr, ptr @poisoned_decl, align 8
  store ptr %136, ptr %13, align 8
  br label %141

137:                                              ; preds = %124
  %138 = load ptr, ptr %14, align 8
  call void @advance(ptr noundef %138)
  br label %139

139:                                              ; preds = %137
  %140 = load ptr, ptr %15, align 8
  store ptr %140, ptr %13, align 8
  br label %141

141:                                              ; preds = %139, %131, %103, %75, %45, %39, %31
  %142 = load ptr, ptr %13, align 8
  ret ptr %142
}