; Function Attrs: nounwind uwtable
define internal fastcc ptr @parse_distinct_declaration(ptr noundef %0) unnamed_addr #0 {
  tail call void @advance(ptr noundef %0) #8
  %2 = getelementptr inbounds i8, ptr %0, i64 16
  %3 = load ptr, ptr %2, align 8
  %4 = getelementptr inbounds i8, ptr %0, i64 48
  %5 = load i64, ptr %4, align 8
  %6 = tail call ptr @decl_new_with_type(ptr noundef %3, i64 %5, i32 noundef 10) #8
  %7 = getelementptr inbounds i8, ptr %0, i64 40
  %8 = load i32, ptr %7, align 8
  %9 = icmp eq i32 %8, 64
  %10 = add i32 %8, -82
  %11 = icmp ult i32 %10, 63
  %or.cond.i = or i1 %9, %11
  br i1 %or.cond.i, label %consume_type_name.exit.thread.sink.split, label %12

12:                                               ; preds = %1
  %13 = icmp eq i32 %8, 65
  br i1 %13, label %consume_type_name.exit.thread.sink.split, label %consume_type_name.exit

consume_type_name.exit:                           ; preds = %12
  %14 = tail call zeroext i1 (ptr, i32, ptr, ...) @consume(ptr noundef nonnull %0, i32 noundef 66, ptr noundef nonnull @.str.81, ptr noundef nonnull @.str.140, ptr noundef nonnull @.str.140) #8
  br i1 %14, label %17, label %consume_type_name.exit.thread

consume_type_name.exit.thread.sink.split:         ; preds = %12, %1
  %.str.80.sink = phi ptr [ @.str.79, %1 ], [ @.str.80, %12 ]
  %15 = load i64, ptr %4, align 8
  tail call void (i64, ptr, ...) @sema_error_at(i64 %15, ptr noundef nonnull %.str.80.sink, ptr noundef nonnull @.str.140) #8
  br label %consume_type_name.exit.thread

consume_type_name.exit.thread:                    ; preds = %consume_type_name.exit.thread.sink.split, %consume_type_name.exit
  %16 = load ptr, ptr @poisoned_decl, align 8
  br label %78

17:                                               ; preds = %consume_type_name.exit
  %18 = getelementptr inbounds i8, ptr %6, i64 80
  %19 = tail call zeroext i1 @parse_interface_impls(ptr noundef nonnull %0, ptr noundef nonnull %18)
  br i1 %19, label %22, label %20

20:                                               ; preds = %17
  %21 = load ptr, ptr @poisoned_decl, align 8
  br label %78

22:                                               ; preds = %17
  %23 = tail call fastcc zeroext i1 @parse_attributes_for_global(ptr noundef nonnull %0, ptr noundef %6)
  br i1 %23, label %26, label %24

24:                                               ; preds = %22
  %25 = load ptr, ptr @poisoned_decl, align 8
  br label %78

26:                                               ; preds = %22
  %27 = getelementptr inbounds i8, ptr %6, i64 72
  %28 = load ptr, ptr %27, align 8
  store i32 32, ptr %28, align 8
  %29 = getelementptr inbounds i8, ptr %6, i64 24
  %30 = load i64, ptr %29, align 8
  %31 = and i64 %30, -128
  %32 = or disjoint i64 %31, 10
  store i64 %32, ptr %29, align 8
  %33 = load i32, ptr %7, align 8
  %34 = icmp eq i32 %33, 10
  br i1 %34, label %.critedge42, label %35

35:                                               ; preds = %26
  %36 = tail call ptr @token_type_to_string(i32 noundef 10) #8
  %37 = load i64, ptr %4, align 8
  tail call void (i64, ptr, ...) @sema_error_at(i64 %37, ptr noundef nonnull @.str.82, ptr noundef %36) #8
  %38 = load ptr, ptr @poisoned_decl, align 8
  br label %78

.critedge42:                                      ; preds = %26
  tail call void @advance(ptr noundef nonnull %0) #8
  %39 = tail call zeroext i1 @try_consume(ptr noundef nonnull %0, i32 noundef 129) #8
  %40 = load i64, ptr %29, align 8
  %41 = select i1 %39, i64 32768, i64 0
  %42 = and i64 %40, -32769
  %43 = or disjoint i64 %42, %41
  store i64 %43, ptr %29, align 8
  %44 = tail call fastcc ptr @parse_base_type(ptr noundef nonnull %0)
  %.not.i = icmp eq ptr %44, null
  br i1 %.not.i, label %.split8.i, label %46

.split8.i:                                        ; preds = %.critedge42
  %45 = tail call ptr @parse_type_with_base(ptr noundef nonnull %0, ptr noundef null)
  br label %parse_type.exit

46:                                               ; preds = %.critedge42
  %47 = load i16, ptr %44, align 8
  %48 = and i16 %47, 504
  %.not10.i = icmp eq i16 %48, 0
  br i1 %.not10.i, label %50, label %.split.i

.split.i:                                         ; preds = %46
  %49 = tail call ptr @parse_type_with_base(ptr noundef nonnull %0, ptr noundef nonnull %44)
  br label %parse_type.exit

50:                                               ; preds = %46
  %51 = load ptr, ptr @poisoned_type_info, align 8
  br label %parse_type.exit

parse_type.exit:                                  ; preds = %.split8.i, %.split.i, %50
  %.0.i43 = phi ptr [ %51, %50 ], [ %49, %.split.i ], [ %45, %.split8.i ]
  %.not = icmp eq ptr %.0.i43, null
  br i1 %.not, label %.critedge, label %52

52:                                               ; preds = %parse_type.exit
  %53 = load i16, ptr %.0.i43, align 8
  %54 = and i16 %53, 504
  %.not40 = icmp eq i16 %54, 0
  br i1 %.not40, label %55, label %.critedge

55:                                               ; preds = %52
  %56 = load ptr, ptr @poisoned_decl, align 8
  br label %78

.critedge:                                        ; preds = %parse_type.exit, %52
  %57 = getelementptr inbounds i8, ptr %6, i64 96
  store ptr %.0.i43, ptr %57, align 8
  %58 = getelementptr inbounds i8, ptr %6, i64 16
  %59 = getelementptr inbounds i8, ptr %0, i64 56
  %60 = load i64, ptr %58, align 8
  %61 = load i64, ptr %59, align 8
  %.not.unshifted.i = xor i64 %61, %60
  %.not.i44 = icmp ult i64 %.not.unshifted.i, 4294967296
  br i1 %.not.i44, label %63, label %62

62:                                               ; preds = %.critedge
  %.sroa.33.0.extract.shift.i = lshr i64 %60, 16
  br label %extend_span_with_token.exit

63:                                               ; preds = %.critedge
  %.sroa.4.0.extract.shift.i = lshr i64 %60, 24
  %64 = trunc i64 %61 to i32
  %65 = lshr i32 %64, 24
  %66 = lshr i32 %64, 16
  %67 = trunc i64 %.sroa.4.0.extract.shift.i to i32
  %68 = sub i32 %66, %67
  %69 = add i32 %68, %65
  %70 = zext i32 %69 to i64
  br label %extend_span_with_token.exit

extend_span_with_token.exit:                      ; preds = %62, %63
  %.sroa.311.0.i = phi i64 [ %.sroa.33.0.extract.shift.i, %62 ], [ %70, %63 ]
  %.sroa.311.0.insert.ext.i = shl nuw i64 %.sroa.311.0.i, 16
  %.sroa.311.0.insert.shift.i = and i64 %.sroa.311.0.insert.ext.i, 16711680
  %71 = and i64 %60, -16711681
  %.sroa.010.0.insert.insert.i = or disjoint i64 %.sroa.311.0.insert.shift.i, %71
  store i64 %.sroa.010.0.insert.insert.i, ptr %58, align 8
  %72 = load i32, ptr %7, align 8
  %73 = icmp eq i32 %72, 9
  br i1 %73, label %77, label %74

74:                                               ; preds = %extend_span_with_token.exit
  %75 = load i64, ptr %59, align 8
  tail call void (i64, ptr, ...) @sema_error_at_after(i64 %75, ptr noundef nonnull @.str.16) #8
  %76 = load ptr, ptr @poisoned_decl, align 8
  br label %78

77:                                               ; preds = %extend_span_with_token.exit
  tail call void @advance(ptr noundef nonnull %0) #8
  br label %78

78:                                               ; preds = %77, %74, %55, %35, %24, %20, %consume_type_name.exit.thread
  %.038 = phi ptr [ %6, %77 ], [ %76, %74 ], [ %56, %55 ], [ %38, %35 ], [ %25, %24 ], [ %21, %20 ], [ %16, %consume_type_name.exit.thread ]
  ret ptr %.038
}